target datalayout = "e-m:e-p270:32:32-p271:32:32-p272:64:64-i64:64-i128:128-f80:128-n8:16:32:64-S128"
target triple = "x86_64-pc-linux-gnu"

%struct.hwloc_obj = type { i32, ptr, i32, ptr, i64, ptr, i32, i32, ptr, ptr, ptr, i32, ptr, ptr, i32, ptr, ptr, ptr, i32, i32, ptr, i32, ptr, i32, ptr, ptr, ptr, ptr, ptr, ptr, i32, ptr, i64 }

; Function Attrs: nounwind uwtable
define internal void @prte_hwloc_base_get_relative_locality_by_depth(ptr noundef %0, i32 noundef %1, ptr noundef %2, ptr noundef %3, ptr noundef %4, ptr noundef %5) #0 {
  %7 = alloca ptr, align 8
  %8 = alloca i32, align 4
  %9 = alloca ptr, align 8
  %10 = alloca ptr, align 8
  %11 = alloca ptr, align 8
  %12 = alloca ptr, align 8
  %13 = alloca i32, align 4
  %14 = alloca i32, align 4
  %15 = alloca ptr, align 8
  %16 = alloca i32, align 4
  %17 = alloca i32, align 4
  store ptr %0, ptr %7, align 8, !tbaa !3
  store i32 %1, ptr %8, align 4, !tbaa !19
  store ptr %2, ptr %9, align 8, !tbaa !27
  store ptr %3, ptr %10, align 8, !tbaa !27
  store ptr %4, ptr %11, align 8, !tbaa !111
  store ptr %5, ptr %12, align 8, !tbaa !113
  call void @llvm.lifetime.start.p0(i64 4, ptr %13) #10
  call void @llvm.lifetime.start.p0(i64 4, ptr %14) #10
  call void @llvm.lifetime.start.p0(i64 8, ptr %15) #10
  call void @llvm.lifetime.start.p0(i64 4, ptr %16) #10
  call void @llvm.lifetime.start.p0(i64 4, ptr %17) #10
  %18 = load ptr, ptr %7, align 8, !tbaa !3
  %19 = load i32, ptr %8, align 4, !tbaa !19
  %20 = call i32 @hwloc_get_nbobjs_by_depth(ptr noundef %18, i32 noundef %19) #11
  store i32 %20, ptr %13, align 4, !tbaa !19
  store i32 0, ptr %14, align 4, !tbaa !19
  br label %21

21:                                               ; preds = %95, %6
  %22 = load i32, ptr %14, align 4, !tbaa !19
  %23 = load i32, ptr %13, align 4, !tbaa !19
  %24 = icmp ult i32 %22, %23
  br i1 %24, label %25, label %98

25:                                               ; preds = %21
  %26 = load ptr, ptr %7, align 8, !tbaa !3
  %27 = load i32, ptr %8, align 4, !tbaa !19
  %28 = load i32, ptr %14, align 4, !tbaa !19
  %29 = call ptr @hwloc_get_obj_by_depth(ptr noundef %26, i32 noundef %27, i32 noundef %28) #11
  store ptr %29, ptr %15, align 8, !tbaa !8
  %30 = load ptr, ptr %15, align 8, !tbaa !8
  %31 = getelementptr inbounds nuw %struct.hwloc_obj, ptr %30, i32 0, i32 25
  %32 = load ptr, ptr %31, align 8, !tbaa !10
  %33 = load ptr, ptr %9, align 8, !tbaa !27
  %34 = call i32 @hwloc_bitmap_intersects(ptr noundef %32, ptr noundef %33) #11
  store i32 %34, ptr %16, align 4, !tbaa !19
  %35 = load ptr, ptr %15, align 8, !tbaa !8
  %36 = getelementptr inbounds nuw %struct.hwloc_obj, ptr %35, i32 0, i32 25
  %37 = load ptr, ptr %36, align 8, !tbaa !10
  %38 = load ptr, ptr %10, align 8, !tbaa !27
  %39 = call i32 @hwloc_bitmap_intersects(ptr noundef %37, ptr noundef %38) #11
  store i32 %39, ptr %17, align 4, !tbaa !19
  %40 = load i32, ptr %16, align 4, !tbaa !19
  %41 = icmp ne i32 %40, 0
  br i1 %41, label %42, label %94

42:                                               ; preds = %25
  %43 = load i32, ptr %17, align 4, !tbaa !19
  %44 = icmp ne i32 %43, 0
  br i1 %44, label %45, label %94

45:                                               ; preds = %42
  %46 = load ptr, ptr %12, align 8, !tbaa !113
  store i8 1, ptr %46, align 1, !tbaa !20
  %47 = load ptr, ptr %15, align 8, !tbaa !8
  %48 = getelementptr inbounds nuw %struct.hwloc_obj, ptr %47, i32 0, i32 0
  %49 = load i32, ptr %48, align 8, !tbaa !96
  switch i32 %49, label %92 [
    i32 1, label %50
    i32 13, label %56
    i32 6, label %62
    i32 5, label %68
    i32 4, label %74
    i32 2, label %80
    i32 3, label %86
  ]

50:                                               ; preds = %45
  %51 = load ptr, ptr %11, align 8, !tbaa !111
  %52 = load i16, ptr %51, align 2, !tbaa !109
  %53 = zext i16 %52 to i32
  %54 = or i32 %53, 32
  %55 = trunc i32 %54 to i16
  store i16 %55, ptr %51, align 2, !tbaa !109
  br label %93

56:                                               ; preds = %45
  %57 = load ptr, ptr %11, align 8, !tbaa !111
  %58 = load i16, ptr %57, align 2, !tbaa !109
  %59 = zext i16 %58 to i32
  %60 = or i32 %59, 64
  %61 = trunc i32 %60 to i16
  store i16 %61, ptr %57, align 2, !tbaa !109
  br label %93

62:                                               ; preds = %45
  %63 = load ptr, ptr %11, align 8, !tbaa !111
  %64 = load i16, ptr %63, align 2, !tbaa !109
  %65 = zext i16 %64 to i32
  %66 = or i32 %65, 128
  %67 = trunc i32 %66 to i16
  store i16 %67, ptr %63, align 2, !tbaa !109
  br label %93

68:                                               ; preds = %45
  %69 = load ptr, ptr %11, align 8, !tbaa !111
  %70 = load i16, ptr %69, align 2, !tbaa !109
  %71 = zext i16 %70 to i32
  %72 = or i32 %71, 256
  %73 = trunc i32 %72 to i16
  store i16 %73, ptr %69, align 2, !tbaa !109
  br label %93

74:                                               ; preds = %45
  %75 = load ptr, ptr %11, align 8, !tbaa !111
  %76 = load i16, ptr %75, align 2, !tbaa !109
  %77 = zext i16 %76 to i32
  %78 = or i32 %77, 512
  %79 = trunc i32 %78 to i16
  store i16 %79, ptr %75, align 2, !tbaa !109
  br label %93

80:                                               ; preds = %45
  %81 = load ptr, ptr %11, align 8, !tbaa !111
  %82 = load i16, ptr %81, align 2, !tbaa !109
  %83 = zext i16 %82 to i32
  %84 = or i32 %83, 1024
  %85 = trunc i32 %84 to i16
  store i16 %85, ptr %81, align 2, !tbaa !109
  br label %93

86:                                               ; preds = %45
  %87 = load ptr, ptr %11, align 8, !tbaa !111
  %88 = load i16, ptr %87, align 2, !tbaa !109
  %89 = zext i16 %88 to i32
  %90 = or i32 %89, 2048
  %91 = trunc i32 %90 to i16
  store i16 %91, ptr %87, align 2, !tbaa !109
  br label %93

92:                                               ; preds = %45
  br label %93

93:                                               ; preds = %92, %86, %80, %74, %68, %62, %56, %50
  br label %98

94:                                               ; preds = %42, %25
  br label %95

95:                                               ; preds = %94
  %96 = load i32, ptr %14, align 4, !tbaa !19
  %97 = add i32 %96, 1
  store i32 %97, ptr %14, align 4, !tbaa !19
  br label %21, !llvm.loop !115

98:                                               ; preds = %93, %21
  call void @llvm.lifetime.end.p0(i64 4, ptr %17) #10
  call void @llvm.lifetime.end.p0(i64 4, ptr %16) #10
  call void @llvm.lifetime.end.p0(i64 8, ptr %15) #10
  call void @llvm.lifetime.end.p0(i64 4, ptr %14) #10
  call void @llvm.lifetime.end.p0(i64 4, ptr %13) #10
  ret void
}