; Function Attrs: nofree nounwind memory(read, argmem: readwrite) uwtable
define internal fastcc void @prte_hwloc_base_get_relative_locality_by_depth(ptr noundef readonly %0, i32 noundef %1, ptr noundef readonly %2, ptr noundef readonly %3, ptr noundef nonnull captures(none) %4, ptr noundef nonnull writeonly captures(none) %5) unnamed_addr #12 {
  %7 = tail call i32 @hwloc_get_nbobjs_by_depth(ptr noundef %0, i32 noundef %1) #19
  %.not = icmp eq i32 %7, 0
  br i1 %.not, label %.loopexit, label %.lr.ph

8:                                                ; preds = %.lr.ph
  %9 = add nuw i32 %.023, 1
  %exitcond.not = icmp eq i32 %9, %7
  br i1 %exitcond.not, label %.loopexit, label %.lr.ph, !llvm.loop !96

.lr.ph:                                           ; preds = %6, %8
  %.023 = phi i32 [ %9, %8 ], [ 0, %6 ]
  %10 = tail call ptr @hwloc_get_obj_by_depth(ptr noundef %0, i32 noundef %1, i32 noundef %.023) #19
  %11 = getelementptr inbounds nuw i8, ptr %10, i64 184
  %12 = load ptr, ptr %11, align 8, !tbaa !3
  %13 = tail call i32 @hwloc_bitmap_intersects(ptr noundef %12, ptr noundef %2) #19
  %14 = tail call i32 @hwloc_bitmap_intersects(ptr noundef %12, ptr noundef %3) #19
  %15 = icmp ne i32 %13, 0
  %16 = icmp ne i32 %14, 0
  %or.cond = select i1 %15, i1 %16, i1 false
  br i1 %or.cond, label %17, label %8

17:                                               ; preds = %.lr.ph
  store i8 1, ptr %5, align 1, !tbaa !49
  %18 = load i32, ptr %10, align 8, !tbaa !81
  %switch.tableidx = add i32 %18, -1
  %19 = icmp ult i32 %switch.tableidx, 13
  br i1 %19, label %switch.hole_check, label %.loopexit

switch.hole_check:                                ; preds = %17
  %switch.maskindex = trunc nuw i32 %switch.tableidx to i16
  %switch.shifted = lshr i16 4159, %switch.maskindex
  %switch.lobit = trunc i16 %switch.shifted to i1
  br i1 %switch.lobit, label %switch.lookup, label %.loopexit

switch.lookup:                                    ; preds = %switch.hole_check
  %20 = zext nneg i32 %switch.tableidx to i64
  %switch.gep = getelementptr inbounds nuw [13 x i16], ptr @switch.table.prte_hwloc_base_get_relative_locality_by_depth, i64 0, i64 %20
  %switch.load = load i16, ptr %switch.gep, align 2
  %21 = load i16, ptr %4, align 2, !tbaa !94
  %22 = or i16 %21, %switch.load
  store i16 %22, ptr %4, align 2, !tbaa !94
  br label %.loopexit

.loopexit:                                        ; preds = %8, %switch.hole_check, %17, %switch.lookup, %6
  ret void
}